target datalayout = "e-m:e-p270:32:32-p271:32:32-p272:64:64-i64:64-i128:128-f80:128-n8:16:32:64-S128"
target triple = "x86_64-pc-linux-gnu"

%struct.pmix_bfrops_base_component_t = type { %struct.pmix_mca_base_component_2_1_0_t, i32, %struct.pmix_pointer_array_t, ptr }
%struct.pmix_mca_base_component_2_1_0_t = type { i32, i32, i32, [16 x i8], i32, i32, i32, [32 x i8], i32, i32, i32, [64 x i8], i32, i32, i32, ptr, ptr, ptr, ptr, [32 x i8] }
%struct.pmix_pointer_array_t = type { %struct.pmix_object_t, i32, i32, i32, i32, i32, ptr, ptr }
%struct.pmix_object_t = type { %union.pthread_mutex_t, ptr, i32, %struct.pmix_tma }
%union.pthread_mutex_t = type { %struct.__pthread_mutex_s }
%struct.__pthread_mutex_s = type { i32, i32, i32, i32, i32, i16, i16, %struct.__pthread_internal_list }
%struct.__pthread_internal_list = type { ptr, ptr }
%struct.pmix_tma = type { ptr, ptr, ptr, ptr, ptr, ptr, ptr, ptr }
%struct.pmix_mca_base_framework_t = type { ptr, ptr, ptr, ptr, ptr, ptr, i32, i32, ptr, ptr, i32, i32, %struct.pmix_list_t, %struct.pmix_list_t }
%struct.pmix_list_t = type { %struct.pmix_object_t, %struct.pmix_list_item_t, i64 }
%struct.pmix_list_item_t = type { %struct.pmix_object_t, ptr, ptr, i32 }
%struct.pmix_output_desc_t = type { i8, i8, i32, i8, i32, ptr, ptr, i32, ptr, i32, i8, i8, i8, i8, ptr, i32, i32 }
%struct.pmix_buffer_t = type { %struct.pmix_object_t, i8, ptr, ptr, ptr, i64, i64 }
%struct.pmix_bfrop_type_info_t = type { %struct.pmix_object_t, i16, ptr, ptr, ptr, ptr, ptr }

@pmix_mca_bfrops_v20_component = external global %struct.pmix_bfrops_base_component_t, align 8
@pmix_bfrops_base_framework = external global %struct.pmix_mca_base_framework_t, align 8
@pmix_output_info = external global [0 x %struct.pmix_output_desc_t], align 8
@.str = private unnamed_addr constant [45 x i8] c"pmix20_bfrop_pack_buffer( %p, %p, %lu, %d )\0A\00", align 1
@.str.4 = private unnamed_addr constant [30 x i8] c"pmix20_bfrop_pack_int32 * %d\0A\00", align 1

; Function Attrs: inlinehint nounwind uwtable
define internal ptr @pmix_pointer_array_get_item(ptr noundef %0, i32 noundef %1) #3 {
  %3 = alloca ptr, align 8
  %4 = alloca ptr, align 8
  %5 = alloca i32, align 4
  %6 = alloca ptr, align 8
  %7 = alloca i32, align 4
  store ptr %0, ptr %4, align 8, !tbaa !11
  store i32 %1, ptr %5, align 4, !tbaa !7
  call void @llvm.lifetime.start.p0(i64 8, ptr %6) #9
  %8 = load i32, ptr %5, align 4, !tbaa !7
  %9 = icmp sgt i32 0, %8
  br i1 %9, label %16, label %10

10:                                               ; preds = %2
  %11 = load ptr, ptr %4, align 8, !tbaa !11
  %12 = getelementptr inbounds nuw %struct.pmix_pointer_array_t, ptr %11, i32 0, i32 3
  %13 = load i32, ptr %12, align 8, !tbaa !38
  %14 = load i32, ptr %5, align 4, !tbaa !7
  %15 = icmp sle i32 %13, %14
  br label %16

16:                                               ; preds = %10, %2
  %17 = phi i1 [ true, %2 ], [ %15, %10 ]
  %18 = xor i1 %17, true
  %19 = xor i1 %18, true
  %20 = zext i1 %19 to i32
  %21 = sext i32 %20 to i64
  %22 = call i64 @llvm.expect.i64(i64 %21, i64 0)
  %23 = icmp ne i64 %22, 0
  br i1 %23, label %24, label %25

24:                                               ; preds = %16
  store ptr null, ptr %3, align 8
  store i32 1, ptr %7, align 4
  br label %34

25:                                               ; preds = %16
  %26 = load ptr, ptr %4, align 8, !tbaa !11
  %27 = getelementptr inbounds nuw %struct.pmix_pointer_array_t, ptr %26, i32 0, i32 7
  %28 = load ptr, ptr %27, align 8, !tbaa !41
  %29 = load i32, ptr %5, align 4, !tbaa !7
  %30 = sext i32 %29 to i64
  %31 = getelementptr inbounds ptr, ptr %28, i64 %30
  %32 = load ptr, ptr %31, align 8, !tbaa !3
  store ptr %32, ptr %6, align 8, !tbaa !3
  %33 = load ptr, ptr %6, align 8, !tbaa !3
  store ptr %33, ptr %3, align 8
  store i32 1, ptr %7, align 4
  br label %34

34:                                               ; preds = %25, %24
  call void @llvm.lifetime.end.p0(i64 8, ptr %6) #9
  %35 = load ptr, ptr %3, align 8
  ret ptr %35
}

; Function Attrs: inlinehint nounwind uwtable
define internal i32 @__bswap_32(i32 noundef %0) #3 {
  %2 = alloca i32, align 4
  store i32 %0, ptr %2, align 4, !tbaa !7
  %3 = load i32, ptr %2, align 4, !tbaa !7
  %4 = and i32 %3, -16777216
  %5 = lshr i32 %4, 24
  %6 = load i32, ptr %2, align 4, !tbaa !7
  %7 = and i32 %6, 16711680
  %8 = lshr i32 %7, 8
  %9 = or i32 %5, %8
  %10 = load i32, ptr %2, align 4, !tbaa !7
  %11 = and i32 %10, 65280
  %12 = shl i32 %11, 8
  %13 = or i32 %9, %12
  %14 = load i32, ptr %2, align 4, !tbaa !7
  %15 = and i32 %14, 255
  %16 = shl i32 %15, 24
  %17 = or i32 %13, %16
  ret i32 %17
}

; Function Attrs: nounwind uwtable
define i32 @pmix20_bfrop_pack_buffer(ptr noundef %0, ptr noundef %1, ptr noundef %2, i32 noundef %3, i16 noundef zeroext %4) #0 {
  %6 = alloca i32, align 4
  %7 = alloca ptr, align 8
  %8 = alloca ptr, align 8
  %9 = alloca ptr, align 8
  %10 = alloca i32, align 4
  %11 = alloca i16, align 2
  %12 = alloca i16, align 2
  %13 = alloca i32, align 4
  %14 = alloca ptr, align 8
  %15 = alloca i32, align 4
  store ptr %0, ptr %7, align 8, !tbaa !11
  store ptr %1, ptr %8, align 8, !tbaa !3
  store ptr %2, ptr %9, align 8, !tbaa !3
  store i32 %3, ptr %10, align 4, !tbaa !7
  store i16 %4, ptr %11, align 2, !tbaa !9
  call void @llvm.lifetime.start.p0(i64 2, ptr %12) #9
  call void @llvm.lifetime.start.p0(i64 4, ptr %13) #9
  call void @llvm.lifetime.start.p0(i64 8, ptr %14) #9
  %16 = load i32, ptr getelementptr inbounds nuw (%struct.pmix_mca_base_framework_t, ptr @pmix_bfrops_base_framework, i32 0, i32 11), align 4, !tbaa !22
  %17 = icmp sge i32 %16, 0
  br i1 %17, label %18, label %36

18:                                               ; preds = %5
  %19 = load i32, ptr getelementptr inbounds nuw (%struct.pmix_mca_base_framework_t, ptr @pmix_bfrops_base_framework, i32 0, i32 11), align 4, !tbaa !22
  %20 = icmp slt i32 %19, 64
  br i1 %20, label %21, label %36

21:                                               ; preds = %18
  %22 = load i32, ptr getelementptr inbounds nuw (%struct.pmix_mca_base_framework_t, ptr @pmix_bfrops_base_framework, i32 0, i32 11), align 4, !tbaa !22
  %23 = sext i32 %22 to i64
  %24 = getelementptr inbounds [0 x %struct.pmix_output_desc_t], ptr @pmix_output_info, i64 0, i64 %23
  %25 = getelementptr inbounds nuw %struct.pmix_output_desc_t, ptr %24, i32 0, i32 2
  %26 = load i32, ptr %25, align 4, !tbaa !28
  %27 = icmp sge i32 %26, 20
  br i1 %27, label %28, label %36

28:                                               ; preds = %21
  %29 = load i32, ptr getelementptr inbounds nuw (%struct.pmix_mca_base_framework_t, ptr @pmix_bfrops_base_framework, i32 0, i32 11), align 4, !tbaa !22
  %30 = load ptr, ptr %8, align 8, !tbaa !3
  %31 = load ptr, ptr %9, align 8, !tbaa !3
  %32 = load i32, ptr %10, align 4, !tbaa !7
  %33 = sext i32 %32 to i64
  %34 = load i16, ptr %11, align 2, !tbaa !9
  %35 = zext i16 %34 to i32
  call void (i32, ptr, ...) @pmix_output(i32 noundef %29, ptr noundef @.str, ptr noundef %30, ptr noundef %31, i64 noundef %33, i32 noundef %35)
  br label %36

36:                                               ; preds = %28, %21, %18, %5
  %37 = load i16, ptr %11, align 2, !tbaa !9
  %38 = zext i16 %37 to i32
  switch i32 %38, label %40 [
    i32 34, label %39
  ]

39:                                               ; preds = %36
  store i16 14, ptr %12, align 2, !tbaa !9
  br label %42

40:                                               ; preds = %36
  %41 = load i16, ptr %11, align 2, !tbaa !9
  store i16 %41, ptr %12, align 2, !tbaa !9
  br label %42

42:                                               ; preds = %40, %39
  %43 = load ptr, ptr %8, align 8, !tbaa !3
  %44 = getelementptr inbounds nuw %struct.pmix_buffer_t, ptr %43, i32 0, i32 1
  %45 = load i8, ptr %44, align 8, !tbaa !13
  %46 = zext i8 %45 to i32
  %47 = icmp eq i32 2, %46
  br i1 %47, label %48, label %57

48:                                               ; preds = %42
  %49 = load ptr, ptr %7, align 8, !tbaa !11
  %50 = load ptr, ptr %8, align 8, !tbaa !3
  %51 = load i16, ptr %12, align 2, !tbaa !9
  %52 = call i32 @pmix20_bfrop_store_data_type(ptr noundef %49, ptr noundef %50, i16 noundef zeroext %51)
  store i32 %52, ptr %13, align 4, !tbaa !7
  %53 = icmp ne i32 0, %52
  br i1 %53, label %54, label %56

54:                                               ; preds = %48
  %55 = load i32, ptr %13, align 4, !tbaa !7
  store i32 %55, ptr %6, align 4
  store i32 1, ptr %15, align 4
  br label %73

56:                                               ; preds = %48
  br label %57

57:                                               ; preds = %56, %42
  %58 = load i16, ptr %12, align 2, !tbaa !9
  %59 = zext i16 %58 to i32
  %60 = call ptr @pmix_pointer_array_get_item(ptr noundef getelementptr inbounds nuw (%struct.pmix_bfrops_base_component_t, ptr @pmix_mca_bfrops_v20_component, i32 0, i32 2), i32 noundef %59)
  store ptr %60, ptr %14, align 8, !tbaa !3
  %61 = icmp eq ptr null, %60
  br i1 %61, label %62, label %63

62:                                               ; preds = %57
  store i32 -21, ptr %6, align 4
  store i32 1, ptr %15, align 4
  br label %73

63:                                               ; preds = %57
  %64 = load ptr, ptr %14, align 8, !tbaa !3
  %65 = getelementptr inbounds nuw %struct.pmix_bfrop_type_info_t, ptr %64, i32 0, i32 3
  %66 = load ptr, ptr %65, align 8, !tbaa !36
  %67 = load ptr, ptr %7, align 8, !tbaa !11
  %68 = load ptr, ptr %8, align 8, !tbaa !3
  %69 = load ptr, ptr %9, align 8, !tbaa !3
  %70 = load i32, ptr %10, align 4, !tbaa !7
  %71 = load i16, ptr %12, align 2, !tbaa !9
  %72 = call i32 %66(ptr noundef %67, ptr noundef %68, ptr noundef %69, i32 noundef %70, i16 noundef zeroext %71)
  store i32 %72, ptr %6, align 4
  store i32 1, ptr %15, align 4
  br label %73

73:                                               ; preds = %63, %62, %54
  call void @llvm.lifetime.end.p0(i64 8, ptr %14) #9
  call void @llvm.lifetime.end.p0(i64 4, ptr %13) #9
  call void @llvm.lifetime.end.p0(i64 2, ptr %12) #9
  %74 = load i32, ptr %6, align 4
  ret i32 %74
}

; Function Attrs: nounwind uwtable
define i32 @pmix20_bfrop_pack_int32(ptr noundef %0, ptr noundef %1, ptr noundef %2, i32 noundef %3, i16 noundef zeroext %4) #0 {
  %6 = alloca i32, align 4
  %7 = alloca ptr, align 8
  %8 = alloca ptr, align 8
  %9 = alloca ptr, align 8
  %10 = alloca i32, align 4
  %11 = alloca i16, align 2
  %12 = alloca i32, align 4
  %13 = alloca i32, align 4
  %14 = alloca ptr, align 8
  %15 = alloca ptr, align 8
  %16 = alloca i32, align 4
  store ptr %0, ptr %7, align 8, !tbaa !11
  store ptr %1, ptr %8, align 8, !tbaa !3
  store ptr %2, ptr %9, align 8, !tbaa !3
  store i32 %3, ptr %10, align 4, !tbaa !7
  store i16 %4, ptr %11, align 2, !tbaa !9
  call void @llvm.lifetime.start.p0(i64 4, ptr %12) #9
  call void @llvm.lifetime.start.p0(i64 4, ptr %13) #9
  call void @llvm.lifetime.start.p0(i64 8, ptr %14) #9
  %17 = load ptr, ptr %9, align 8, !tbaa !3
  store ptr %17, ptr %14, align 8, !tbaa !20
  call void @llvm.lifetime.start.p0(i64 8, ptr %15) #9
  %18 = load i32, ptr getelementptr inbounds nuw (%struct.pmix_mca_base_framework_t, ptr @pmix_bfrops_base_framework, i32 0, i32 11), align 4, !tbaa !22
  %19 = icmp sge i32 %18, 0
  br i1 %19, label %20, label %33

20:                                               ; preds = %5
  %21 = load i32, ptr getelementptr inbounds nuw (%struct.pmix_mca_base_framework_t, ptr @pmix_bfrops_base_framework, i32 0, i32 11), align 4, !tbaa !22
  %22 = icmp slt i32 %21, 64
  br i1 %22, label %23, label %33

23:                                               ; preds = %20
  %24 = load i32, ptr getelementptr inbounds nuw (%struct.pmix_mca_base_framework_t, ptr @pmix_bfrops_base_framework, i32 0, i32 11), align 4, !tbaa !22
  %25 = sext i32 %24 to i64
  %26 = getelementptr inbounds [0 x %struct.pmix_output_desc_t], ptr @pmix_output_info, i64 0, i64 %25
  %27 = getelementptr inbounds nuw %struct.pmix_output_desc_t, ptr %26, i32 0, i32 2
  %28 = load i32, ptr %27, align 4, !tbaa !28
  %29 = icmp sge i32 %28, 20
  br i1 %29, label %30, label %33

30:                                               ; preds = %23
  %31 = load i32, ptr getelementptr inbounds nuw (%struct.pmix_mca_base_framework_t, ptr @pmix_bfrops_base_framework, i32 0, i32 11), align 4, !tbaa !22
  %32 = load i32, ptr %10, align 4, !tbaa !7
  call void (i32, ptr, ...) @pmix_output(i32 noundef %31, ptr noundef @.str.4, i32 noundef %32)
  br label %33

33:                                               ; preds = %30, %23, %20, %5
  %34 = load ptr, ptr %8, align 8, !tbaa !3
  %35 = load i32, ptr %10, align 4, !tbaa !7
  %36 = sext i32 %35 to i64
  %37 = mul i64 %36, 4
  %38 = call ptr @pmix_bfrop_buffer_extend(ptr noundef %34, i64 noundef %37)
  store ptr %38, ptr %15, align 8, !tbaa !31
  %39 = icmp eq ptr null, %38
  br i1 %39, label %40, label %41

40:                                               ; preds = %33
  store i32 -29, ptr %6, align 4
  store i32 1, ptr %16, align 4
  br label %74

41:                                               ; preds = %33
  store i32 0, ptr %12, align 4, !tbaa !7
  br label %42

42:                                               ; preds = %56, %41
  %43 = load i32, ptr %12, align 4, !tbaa !7
  %44 = load i32, ptr %10, align 4, !tbaa !7
  %45 = icmp slt i32 %43, %44
  br i1 %45, label %46, label %59

46:                                               ; preds = %42
  %47 = load ptr, ptr %14, align 8, !tbaa !20
  %48 = load i32, ptr %12, align 4, !tbaa !7
  %49 = sext i32 %48 to i64
  %50 = getelementptr inbounds i32, ptr %47, i64 %49
  %51 = load i32, ptr %50, align 4, !tbaa !7
  %52 = call i32 @__bswap_32(i32 noundef %51)
  store i32 %52, ptr %13, align 4, !tbaa !7
  %53 = load ptr, ptr %15, align 8, !tbaa !31
  call void @llvm.memcpy.p0.p0.i64(ptr align 1 %53, ptr align 4 %13, i64 4, i1 false)
  %54 = load ptr, ptr %15, align 8, !tbaa !31
  %55 = getelementptr inbounds nuw i8, ptr %54, i64 4
  store ptr %55, ptr %15, align 8, !tbaa !31
  br label %56

56:                                               ; preds = %46
  %57 = load i32, ptr %12, align 4, !tbaa !7
  %58 = add nsw i32 %57, 1
  store i32 %58, ptr %12, align 4, !tbaa !7
  br label %42, !llvm.loop !32

59:                                               ; preds = %42
  %60 = load i32, ptr %10, align 4, !tbaa !7
  %61 = sext i32 %60 to i64
  %62 = mul i64 %61, 4
  %63 = load ptr, ptr %8, align 8, !tbaa !3
  %64 = getelementptr inbounds nuw %struct.pmix_buffer_t, ptr %63, i32 0, i32 3
  %65 = load ptr, ptr %64, align 8, !tbaa !34
  %66 = getelementptr inbounds nuw i8, ptr %65, i64 %62
  store ptr %66, ptr %64, align 8, !tbaa !34
  %67 = load i32, ptr %10, align 4, !tbaa !7
  %68 = sext i32 %67 to i64
  %69 = mul i64 %68, 4
  %70 = load ptr, ptr %8, align 8, !tbaa !3
  %71 = getelementptr inbounds nuw %struct.pmix_buffer_t, ptr %70, i32 0, i32 6
  %72 = load i64, ptr %71, align 8, !tbaa !35
  %73 = add i64 %72, %69
  store i64 %73, ptr %71, align 8, !tbaa !35
  store i32 0, ptr %6, align 4
  store i32 1, ptr %16, align 4
  br label %74

74:                                               ; preds = %59, %40
  call void @llvm.lifetime.end.p0(i64 8, ptr %15) #9
  call void @llvm.lifetime.end.p0(i64 8, ptr %14) #9
  call void @llvm.lifetime.end.p0(i64 4, ptr %13) #9
  call void @llvm.lifetime.end.p0(i64 4, ptr %12) #9
  %75 = load i32, ptr %6, align 4
  ret i32 %75
}

; Function Attrs: nounwind uwtable
define i32 @pmix20_bfrop_pack(ptr noundef %0, ptr noundef %1, i32 noundef %2, i16 noundef zeroext %3) #0 {
  %5 = alloca i32, align 4
  %6 = alloca ptr, align 8
  %7 = alloca ptr, align 8
  %8 = alloca i32, align 4
  %9 = alloca i16, align 2
  %10 = alloca i32, align 4
  %11 = alloca ptr, align 8
  %12 = alloca i32, align 4
  store ptr %0, ptr %6, align 8, !tbaa !3
  store ptr %1, ptr %7, align 8, !tbaa !3
  store i32 %2, ptr %8, align 4, !tbaa !7
  store i16 %3, ptr %9, align 2, !tbaa !9
  call void @llvm.lifetime.start.p0(i64 4, ptr %10) #9
  call void @llvm.lifetime.start.p0(i64 8, ptr %11) #9
  store ptr getelementptr inbounds nuw (%struct.pmix_bfrops_base_component_t, ptr @pmix_mca_bfrops_v20_component, i32 0, i32 2), ptr %11, align 8, !tbaa !11
  %13 = load ptr, ptr %6, align 8, !tbaa !3
  %14 = icmp eq ptr null, %13
  br i1 %14, label %15, label %16

15:                                               ; preds = %4
  store i32 -27, ptr %5, align 4
  store i32 1, ptr %12, align 4
  br label %44

16:                                               ; preds = %4
  %17 = load ptr, ptr %6, align 8, !tbaa !3
  %18 = getelementptr inbounds nuw %struct.pmix_buffer_t, ptr %17, i32 0, i32 1
  %19 = load i8, ptr %18, align 8, !tbaa !13
  %20 = zext i8 %19 to i32
  %21 = icmp eq i32 2, %20
  br i1 %21, label %22, label %30

22:                                               ; preds = %16
  %23 = load ptr, ptr %11, align 8, !tbaa !11
  %24 = load ptr, ptr %6, align 8, !tbaa !3
  %25 = call i32 @pmix20_bfrop_store_data_type(ptr noundef %23, ptr noundef %24, i16 noundef zeroext 9)
  store i32 %25, ptr %10, align 4, !tbaa !7
  %26 = icmp ne i32 0, %25
  br i1 %26, label %27, label %29

27:                                               ; preds = %22
  %28 = load i32, ptr %10, align 4, !tbaa !7
  store i32 %28, ptr %5, align 4
  store i32 1, ptr %12, align 4
  br label %44

29:                                               ; preds = %22
  br label %30

30:                                               ; preds = %29, %16
  %31 = load ptr, ptr %11, align 8, !tbaa !11
  %32 = load ptr, ptr %6, align 8, !tbaa !3
  %33 = call i32 @pmix20_bfrop_pack_int32(ptr noundef %31, ptr noundef %32, ptr noundef %8, i32 noundef 1, i16 noundef zeroext 9)
  store i32 %33, ptr %10, align 4, !tbaa !7
  %34 = icmp ne i32 0, %33
  br i1 %34, label %35, label %37

35:                                               ; preds = %30
  %36 = load i32, ptr %10, align 4, !tbaa !7
  store i32 %36, ptr %5, align 4
  store i32 1, ptr %12, align 4
  br label %44

37:                                               ; preds = %30
  %38 = load ptr, ptr %11, align 8, !tbaa !11
  %39 = load ptr, ptr %6, align 8, !tbaa !3
  %40 = load ptr, ptr %7, align 8, !tbaa !3
  %41 = load i32, ptr %8, align 4, !tbaa !7
  %42 = load i16, ptr %9, align 2, !tbaa !9
  %43 = call i32 @pmix20_bfrop_pack_buffer(ptr noundef %38, ptr noundef %39, ptr noundef %40, i32 noundef %41, i16 noundef zeroext %42)
  store i32 %43, ptr %5, align 4
  store i32 1, ptr %12, align 4
  br label %44

44:                                               ; preds = %37, %35, %27, %15
  call void @llvm.lifetime.end.p0(i64 8, ptr %11) #9
  call void @llvm.lifetime.end.p0(i64 4, ptr %10) #9
  %45 = load i32, ptr %5, align 4
  ret i32 %45
}