; Function Attrs: nounwind uwtable
define i32 @pmix20_bfrop_pack(ptr noundef %0, ptr noundef %1, i32 noundef %2, i16 noundef zeroext %3) local_unnamed_addr #0 {
  %5 = icmp eq ptr %0, null
  br i1 %5, label %pmix20_bfrop_pack_int32.exit, label %6

6:                                                ; preds = %4
  %7 = getelementptr inbounds nuw i8, ptr %0, i64 120
  %8 = load i8, ptr %7, align 8, !tbaa !3
  %9 = icmp eq i8 %8, 2
  br i1 %9, label %10, label %12

10:                                               ; preds = %6
  %11 = tail call i32 @pmix20_bfrop_store_data_type(ptr noundef nonnull getelementptr inbounds nuw (i8, ptr @pmix_mca_bfrops_v20_component, i64 232), ptr noundef nonnull %0, i16 noundef zeroext 9) #8
  %.not = icmp eq i32 %11, 0
  br i1 %.not, label %12, label %pmix20_bfrop_pack_int32.exit

12:                                               ; preds = %10, %6
  %13 = load i32, ptr getelementptr inbounds nuw (i8, ptr @pmix_bfrops_base_framework, i64 76), align 4, !tbaa !14
  %or.cond.i = icmp ult i32 %13, 64
  br i1 %or.cond.i, label %14, label %20

14:                                               ; preds = %12
  %15 = zext nneg i32 %13 to i64
  %16 = getelementptr inbounds nuw [0 x %struct.pmix_output_desc_t], ptr @pmix_output_info, i64 0, i64 %15, i32 2
  %17 = load i32, ptr %16, align 4, !tbaa !20
  %18 = icmp sgt i32 %17, 19
  br i1 %18, label %19, label %20

19:                                               ; preds = %14
  tail call void (i32, ptr, ...) @pmix_output(i32 noundef %13, ptr noundef nonnull @.str.4, i32 noundef 1) #8
  br label %20

20:                                               ; preds = %19, %14, %12
  %21 = tail call ptr @pmix_bfrop_buffer_extend(ptr noundef nonnull %0, i64 noundef 4) #8
  %22 = icmp eq ptr %21, null
  br i1 %22, label %pmix20_bfrop_pack_int32.exit, label %.lr.ph.i.preheader

.lr.ph.i.preheader:                               ; preds = %20
  %23 = tail call noundef i32 @llvm.bswap.i32(i32 %2)
  store i32 %23, ptr %21, align 1
  %24 = getelementptr inbounds nuw i8, ptr %0, i64 136
  %25 = load ptr, ptr %24, align 8, !tbaa !23
  %26 = getelementptr inbounds nuw i8, ptr %25, i64 4
  store ptr %26, ptr %24, align 8, !tbaa !23
  %27 = getelementptr inbounds nuw i8, ptr %0, i64 160
  %28 = load i64, ptr %27, align 8, !tbaa !24
  %29 = add i64 %28, 4
  store i64 %29, ptr %27, align 8, !tbaa !24
  %30 = load i32, ptr getelementptr inbounds nuw (i8, ptr @pmix_bfrops_base_framework, i64 76), align 4, !tbaa !14
  %or.cond.i16 = icmp ult i32 %30, 64
  br i1 %or.cond.i16, label %31, label %39

31:                                               ; preds = %.lr.ph.i.preheader
  %32 = zext nneg i32 %30 to i64
  %33 = getelementptr inbounds nuw [0 x %struct.pmix_output_desc_t], ptr @pmix_output_info, i64 0, i64 %32, i32 2
  %34 = load i32, ptr %33, align 4, !tbaa !20
  %35 = icmp sgt i32 %34, 19
  br i1 %35, label %36, label %39

36:                                               ; preds = %31
  %37 = sext i32 %2 to i64
  %38 = zext i16 %3 to i32
  tail call void (i32, ptr, ...) @pmix_output(i32 noundef %30, ptr noundef nonnull @.str, ptr noundef nonnull %0, ptr noundef %1, i64 noundef %37, i32 noundef %38) #8
  br label %39

39:                                               ; preds = %36, %31, %.lr.ph.i.preheader
  %cond.i = icmp eq i16 %3, 34
  %..i = select i1 %cond.i, i16 14, i16 %3
  %40 = load i8, ptr %7, align 8, !tbaa !3
  %41 = icmp eq i8 %40, 2
  br i1 %41, label %42, label %44

42:                                               ; preds = %39
  %43 = tail call i32 @pmix20_bfrop_store_data_type(ptr noundef nonnull getelementptr inbounds nuw (i8, ptr @pmix_mca_bfrops_v20_component, i64 232), ptr noundef nonnull %0, i16 noundef zeroext %..i) #8
  %.not.i = icmp eq i32 %43, 0
  br i1 %.not.i, label %44, label %pmix20_bfrop_pack_int32.exit

44:                                               ; preds = %42, %39
  %45 = zext i16 %..i to i32
  %46 = load i32, ptr getelementptr inbounds nuw (i8, ptr @pmix_mca_bfrops_v20_component, i64 360), align 8, !tbaa !25
  %.not.i.i = icmp sgt i32 %46, %45
  br i1 %.not.i.i, label %pmix_pointer_array_get_item.exit.i, label %pmix20_bfrop_pack_int32.exit, !prof !28

pmix_pointer_array_get_item.exit.i:               ; preds = %44
  %47 = load ptr, ptr getelementptr inbounds nuw (i8, ptr @pmix_mca_bfrops_v20_component, i64 384), align 8, !tbaa !29
  %48 = zext i16 %..i to i64
  %49 = getelementptr inbounds nuw ptr, ptr %47, i64 %48
  %50 = load ptr, ptr %49, align 8, !tbaa !30
  %51 = icmp eq ptr %50, null
  br i1 %51, label %pmix20_bfrop_pack_int32.exit, label %52

52:                                               ; preds = %pmix_pointer_array_get_item.exit.i
  %53 = getelementptr inbounds nuw i8, ptr %50, i64 136
  %54 = load ptr, ptr %53, align 8, !tbaa !31
  %55 = tail call i32 %54(ptr noundef nonnull getelementptr inbounds nuw (i8, ptr @pmix_mca_bfrops_v20_component, i64 232), ptr noundef nonnull %0, ptr noundef %1, i32 noundef %2, i16 noundef zeroext %..i) #8
  br label %pmix20_bfrop_pack_int32.exit

pmix20_bfrop_pack_int32.exit:                     ; preds = %52, %pmix_pointer_array_get_item.exit.i, %44, %42, %20, %10, %4
  %.0 = phi i32 [ -27, %4 ], [ %11, %10 ], [ -29, %20 ], [ %55, %52 ], [ %43, %42 ], [ -21, %pmix_pointer_array_get_item.exit.i ], [ -21, %44 ]
  ret i32 %.0
}